; Function Attrs: mustprogress uwtable
define hidden void @_ZN2cv11TiffDecoderC2Ev(ptr noundef nonnull align 8 dereferenceable(400) %0) unnamed_addr #3 align 2 {
  tail call void @_ZN2cv16BaseImageDecoderC2Ev(ptr noundef nonnull align 8 dereferenceable(368) %0)
  store ptr getelementptr inbounds nuw inrange(-16, 104) (i8, ptr @_ZTVN2cv11TiffDecoderE, i64 16), ptr %0, align 8, !tbaa !3
  %2 = getelementptr inbounds nuw i8, ptr %0, i64 368
  %3 = getelementptr inbounds nuw i8, ptr %0, i64 184
  tail call void @llvm.memset.p0.i64(ptr noundef nonnull align 8 dereferenceable(17) %2, i8 0, i64 17, i1 false)
  store i8 1, ptr %3, align 8, !tbaa !6
  %4 = getelementptr inbounds nuw i8, ptr %0, i64 392
  store i64 0, ptr %4, align 8, !tbaa !51
  ret void
}